; ModuleID = '55/396.c'
source_filename = "55/396.c"
target datalayout = "e-m:e-p270:32:32-p271:32:32-p272:64:64-i64:64-f80:128-n8:16:32:64-S128"
target triple = "x86_64-pc-linux-gnu"

@.str = private unnamed_addr constant [3 x i8] c"%d\00", align 1
@.str.1 = private unnamed_addr constant [3 x i8] c"%s\00", align 1
@.str.2 = private unnamed_addr constant [3 x i8] c"%c\00", align 1

; Function Attrs: noinline nounwind uwtable
define dso_local void @main() #0 {
  %1 = alloca [101 x i8], align 16
  %2 = alloca [101 x i8], align 16
  %3 = alloca i32, align 4
  %4 = alloca i32, align 4
  %5 = alloca i32, align 4
  %6 = alloca i32, align 4
  %7 = alloca i32, align 4
  %8 = alloca i64, align 8
  %9 = alloca i64, align 8
  %10 = alloca i64, align 8
  store i64 0, i64* %8, align 8
  %11 = call i32 (i8*, ...) @__isoc99_scanf(i8* getelementptr inbounds ([3 x i8], [3 x i8]* @.str, i64 0, i64 0), i32* %3)
  %12 = getelementptr inbounds [101 x i8], [101 x i8]* %1, i64 0, i64 0
  %13 = call i32 (i8*, ...) @__isoc99_scanf(i8* getelementptr inbounds ([3 x i8], [3 x i8]* @.str.1, i64 0, i64 0), i8* %12)
  %14 = call i32 (i8*, ...) @__isoc99_scanf(i8* getelementptr inbounds ([3 x i8], [3 x i8]* @.str, i64 0, i64 0), i32* %6)
  %15 = getelementptr inbounds [101 x i8], [101 x i8]* %1, i64 0, i64 0
  %16 = call i64 @strlen(i8* %15) #3
  %17 = trunc i64 %16 to i32
  store i32 %17, i32* %7, align 4
  store i32 0, i32* %4, align 4
  br label %18

18:                                               ; preds = %97, %0
  %19 = load i32, i32* %4, align 4
  %20 = load i32, i32* %7, align 4
  %21 = icmp slt i32 %19, %20
  br i1 %21, label %22, label %100

22:                                               ; preds = %18
  %23 = load i32, i32* %4, align 4
  %24 = sext i32 %23 to i64
  %25 = getelementptr inbounds [101 x i8], [101 x i8]* %1, i64 0, i64 %24
  %26 = load i8, i8* %25, align 1
  %27 = sext i8 %26 to i32
  %28 = icmp sge i32 %27, 65
  br i1 %28, label %29, label %45

29:                                               ; preds = %22
  %30 = load i32, i32* %4, align 4
  %31 = sext i32 %30 to i64
  %32 = getelementptr inbounds [101 x i8], [101 x i8]* %1, i64 0, i64 %31
  %33 = load i8, i8* %32, align 1
  %34 = sext i8 %33 to i32
  %35 = icmp sle i32 %34, 90
  br i1 %35, label %36, label %45

36:                                               ; preds = %29
  %37 = load i32, i32* %4, align 4
  %38 = sext i32 %37 to i64
  %39 = getelementptr inbounds [101 x i8], [101 x i8]* %1, i64 0, i64 %38
  %40 = load i8, i8* %39, align 1
  %41 = sext i8 %40 to i32
  %42 = sub nsw i32 %41, 65
  %43 = add nsw i32 %42, 10
  %44 = sext i32 %43 to i64
  store i64 %44, i64* %9, align 8
  br label %78

45:                                               ; preds = %29, %22
  %46 = load i32, i32* %4, align 4
  %47 = sext i32 %46 to i64
  %48 = getelementptr inbounds [101 x i8], [101 x i8]* %1, i64 0, i64 %47
  %49 = load i8, i8* %48, align 1
  %50 = sext i8 %49 to i32
  %51 = icmp sge i32 %50, 97
  br i1 %51, label %52, label %68

52:                                               ; preds = %45
  %53 = load i32, i32* %4, align 4
  %54 = sext i32 %53 to i64
  %55 = getelementptr inbounds [101 x i8], [101 x i8]* %1, i64 0, i64 %54
  %56 = load i8, i8* %55, align 1
  %57 = sext i8 %56 to i32
  %58 = icmp sle i32 %57, 122
  br i1 %58, label %59, label %68

59:                                               ; preds = %52
  %60 = load i32, i32* %4, align 4
  %61 = sext i32 %60 to i64
  %62 = getelementptr inbounds [101 x i8], [101 x i8]* %1, i64 0, i64 %61
  %63 = load i8, i8* %62, align 1
  %64 = sext i8 %63 to i32
  %65 = sub nsw i32 %64, 97
  %66 = add nsw i32 %65, 10
  %67 = sext i32 %66 to i64
  store i64 %67, i64* %9, align 8
  br label %77

68:                                               ; preds = %52, %45
  %69 = load i32, i32* %4, align 4
  %70 = sext i32 %69 to i64
  %71 = getelementptr inbounds [101 x i8], [101 x i8]* %1, i64 0, i64 %70
  %72 = load i8, i8* %71, align 1
  %73 = sext i8 %72 to i32
  %74 = sub nsw i32 %73, 48
  %75 = add nsw i32 %74, 0
  %76 = sext i32 %75 to i64
  store i64 %76, i64* %9, align 8
  br label %77

77:                                               ; preds = %68, %59
  br label %78

78:                                               ; preds = %77, %36
  store i32 1, i32* %5, align 4
  br label %79

79:                                               ; preds = %90, %78
  %80 = load i32, i32* %5, align 4
  %81 = load i32, i32* %7, align 4
  %82 = load i32, i32* %4, align 4
  %83 = sub nsw i32 %81, %82
  %84 = icmp slt i32 %80, %83
  br i1 %84, label %85, label %93

85:                                               ; preds = %79
  %86 = load i32, i32* %3, align 4
  %87 = sext i32 %86 to i64
  %88 = load i64, i64* %9, align 8
  %89 = mul nsw i64 %88, %87
  store i64 %89, i64* %9, align 8
  br label %90

90:                                               ; preds = %85
  %91 = load i32, i32* %5, align 4
  %92 = add nsw i32 %91, 1
  store i32 %92, i32* %5, align 4
  br label %79

93:                                               ; preds = %79
  %94 = load i64, i64* %9, align 8
  %95 = load i64, i64* %8, align 8
  %96 = add nsw i64 %95, %94
  store i64 %96, i64* %8, align 8
  br label %97

97:                                               ; preds = %93
  %98 = load i32, i32* %4, align 4
  %99 = add nsw i32 %98, 1
  store i32 %99, i32* %4, align 4
  br label %18

100:                                              ; preds = %18
  store i32 0, i32* %4, align 4
  br label %101

101:                                              ; preds = %130, %100
  %102 = load i64, i64* %8, align 8
  %103 = load i32, i32* %6, align 4
  %104 = sext i32 %103 to i64
  %105 = srem i64 %102, %104
  store i64 %105, i64* %9, align 8
  %106 = load i64, i64* %9, align 8
  %107 = icmp sgt i64 %106, 9
  br i1 %107, label %108, label %116

108:                                              ; preds = %101
  %109 = load i64, i64* %9, align 8
  %110 = sub nsw i64 %109, 10
  %111 = add nsw i64 %110, 65
  %112 = trunc i64 %111 to i8
  %113 = load i32, i32* %4, align 4
  %114 = sext i32 %113 to i64
  %115 = getelementptr inbounds [101 x i8], [101 x i8]* %2, i64 0, i64 %114
  store i8 %112, i8* %115, align 1
  br label %123

116:                                              ; preds = %101
  %117 = load i64, i64* %9, align 8
  %118 = add nsw i64 48, %117
  %119 = trunc i64 %118 to i8
  %120 = load i32, i32* %4, align 4
  %121 = sext i32 %120 to i64
  %122 = getelementptr inbounds [101 x i8], [101 x i8]* %2, i64 0, i64 %121
  store i8 %119, i8* %122, align 1
  br label %123

123:                                              ; preds = %116, %108
  %124 = load i32, i32* %6, align 4
  %125 = sext i32 %124 to i64
  %126 = load i64, i64* %8, align 8
  %127 = sdiv i64 %126, %125
  store i64 %127, i64* %8, align 8
  %128 = load i32, i32* %4, align 4
  %129 = add nsw i32 %128, 1
  store i32 %129, i32* %4, align 4
  br label %130

130:                                              ; preds = %123
  %131 = load i64, i64* %8, align 8
  %132 = icmp ne i64 %131, 0
  br i1 %132, label %101, label %133

133:                                              ; preds = %130
  %134 = load i32, i32* %4, align 4
  %135 = sub nsw i32 %134, 1
  store i32 %135, i32* %5, align 4
  br label %136

136:                                              ; preds = %146, %133
  %137 = load i32, i32* %5, align 4
  %138 = icmp sge i32 %137, 0
  br i1 %138, label %139, label %149

139:                                              ; preds = %136
  %140 = load i32, i32* %5, align 4
  %141 = sext i32 %140 to i64
  %142 = getelementptr inbounds [101 x i8], [101 x i8]* %2, i64 0, i64 %141
  %143 = load i8, i8* %142, align 1
  %144 = sext i8 %143 to i32
  %145 = call i32 (i8*, ...) @printf(i8* getelementptr inbounds ([3 x i8], [3 x i8]* @.str.2, i64 0, i64 0), i32 %144)
  br label %146

146:                                              ; preds = %139
  %147 = load i32, i32* %5, align 4
  %148 = add nsw i32 %147, -1
  store i32 %148, i32* %5, align 4
  br label %136

149:                                              ; preds = %136
  ret void
}

declare dso_local i32 @__isoc99_scanf(i8*, ...) #1

; Function Attrs: nounwind readonly
declare dso_local i64 @strlen(i8*) #2

declare dso_local i32 @printf(i8*, ...) #1


!llvm.module.flags = !{!0}
!llvm.ident = !{!1}

!0 = !{i32 1, !"wchar_size", i32 4}
!1 = !{!"clang version 10.0.0-4ubuntu1 "}
